target datalayout = "e-m:e-p270:32:32-p271:32:32-p272:64:64-i64:64-i128:128-f80:128-n8:16:32:64-S128"
target triple = "x86_64-pc-linux-gnu"

%"class.icu_77::CalendarAstronomer" = type <{ double, double, double, double, double, %"class.icu_77::CalendarAstronomer::Equatorial", i8, [7 x i8] }>
%"class.icu_77::CalendarAstronomer::Equatorial" = type { double, double }

@_ZN6icu_7718CalendarAstronomer2PIE = external constant double, align 8

; Function Attrs: mustprogress uwtable
define internal noundef double @_ZN6icu_7712_GLOBAL__N_112daysToMillisEPKNS_8TimeZoneEdR10UErrorCode(ptr noundef %0, double noundef %1, ptr noundef nonnull align 4 dereferenceable(4) %2) #0 {
  %4 = alloca double, align 8
  %5 = alloca ptr, align 8
  %6 = alloca double, align 8
  %7 = alloca ptr, align 8
  %8 = alloca double, align 8
  %9 = alloca i32, align 4
  %10 = alloca i32, align 4
  %11 = alloca i32, align 4
  store ptr %0, ptr %5, align 8, !tbaa !46
  store double %1, ptr %6, align 8, !tbaa !47
  store ptr %2, ptr %7, align 8, !tbaa !10
  %12 = load ptr, ptr %7, align 8, !tbaa !10
  %13 = load i32, ptr %12, align 4, !tbaa !30
  %14 = call noundef signext i8 @_ZL9U_FAILURE10UErrorCode(i32 noundef %13)
  %15 = icmp ne i8 %14, 0
  br i1 %15, label %16, label %17

16:                                               ; preds = %3
  store double 0.000000e+00, ptr %4, align 8
  br label %46

17:                                               ; preds = %3
  call void @llvm.lifetime.start.p0(i64 8, ptr %8) #13
  %18 = load double, ptr %6, align 8, !tbaa !47
  %19 = fmul double %18, 8.640000e+07
  store double %19, ptr %8, align 8, !tbaa !47
  %20 = load ptr, ptr %5, align 8, !tbaa !46
  %21 = icmp ne ptr %20, null
  br i1 %21, label %22, label %42

22:                                               ; preds = %17
  call void @llvm.lifetime.start.p0(i64 4, ptr %9) #13
  call void @llvm.lifetime.start.p0(i64 4, ptr %10) #13
  %23 = load ptr, ptr %5, align 8, !tbaa !46
  %24 = load double, ptr %8, align 8, !tbaa !47
  %25 = load ptr, ptr %7, align 8, !tbaa !10
  %26 = load ptr, ptr %23, align 8, !tbaa !11
  %27 = getelementptr inbounds ptr, ptr %26, i64 6
  %28 = load ptr, ptr %27, align 8
  call void %28(ptr noundef nonnull align 8 dereferenceable(72) %23, double noundef %24, i8 noundef signext 0, ptr noundef nonnull align 4 dereferenceable(4) %9, ptr noundef nonnull align 4 dereferenceable(4) %10, ptr noundef nonnull align 4 dereferenceable(4) %25)
  %29 = load ptr, ptr %7, align 8, !tbaa !10
  %30 = load i32, ptr %29, align 4, !tbaa !30
  %31 = call noundef signext i8 @_ZL9U_FAILURE10UErrorCode(i32 noundef %30)
  %32 = icmp ne i8 %31, 0
  br i1 %32, label %33, label %34

33:                                               ; preds = %22
  store double 0.000000e+00, ptr %4, align 8
  store i32 1, ptr %11, align 4
  br label %41

34:                                               ; preds = %22
  %35 = load double, ptr %8, align 8, !tbaa !47
  %36 = load i32, ptr %9, align 4, !tbaa !29
  %37 = load i32, ptr %10, align 4, !tbaa !29
  %38 = add nsw i32 %36, %37
  %39 = sitofp i32 %38 to double
  %40 = fsub double %35, %39
  store double %40, ptr %4, align 8
  store i32 1, ptr %11, align 4
  br label %41

41:                                               ; preds = %34, %33
  call void @llvm.lifetime.end.p0(i64 4, ptr %10) #13
  call void @llvm.lifetime.end.p0(i64 4, ptr %9) #13
  br label %45

42:                                               ; preds = %17
  %43 = load double, ptr %8, align 8, !tbaa !47
  %44 = fsub double %43, 2.880000e+07
  store double %44, ptr %4, align 8
  store i32 1, ptr %11, align 4
  br label %45

45:                                               ; preds = %42, %41
  call void @llvm.lifetime.end.p0(i64 8, ptr %8) #13
  br label %46

46:                                               ; preds = %45, %16
  %47 = load double, ptr %4, align 8
  ret double %47
}

; Function Attrs: inlinehint mustprogress nounwind uwtable
define internal noundef signext i8 @_ZL9U_FAILURE10UErrorCode(i32 noundef %0) #4 {
  %2 = alloca i32, align 4
  store i32 %0, ptr %2, align 4, !tbaa !30
  %3 = load i32, ptr %2, align 4, !tbaa !30
  %4 = icmp sgt i32 %3, 0
  %5 = zext i1 %4 to i8
  ret i8 %5
}

; Function Attrs: mustprogress uwtable
define internal noundef i32 @_ZN6icu_7712_GLOBAL__N_114majorSolarTermEPKNS_8TimeZoneEiR10UErrorCode(ptr noundef %0, i32 noundef %1, ptr noundef nonnull align 4 dereferenceable(4) %2) #0 personality ptr @__gxx_personality_v0 {
  %4 = alloca i32, align 4
  %5 = alloca ptr, align 8
  %6 = alloca i32, align 4
  %7 = alloca ptr, align 8
  %8 = alloca double, align 8
  %9 = alloca i32, align 4
  %10 = alloca i32, align 4
  %11 = alloca %"class.icu_77::CalendarAstronomer", align 8
  %12 = alloca ptr, align 8
  %13 = alloca i32, align 4
  store ptr %0, ptr %5, align 8, !tbaa !46
  store i32 %1, ptr %6, align 4, !tbaa !29
  store ptr %2, ptr %7, align 8, !tbaa !10
  %14 = load ptr, ptr %7, align 8, !tbaa !10
  %15 = load i32, ptr %14, align 4, !tbaa !30
  %16 = call noundef signext i8 @_ZL9U_FAILURE10UErrorCode(i32 noundef %15)
  %17 = icmp ne i8 %16, 0
  br i1 %17, label %18, label %19

18:                                               ; preds = %3
  store i32 0, ptr %4, align 4
  br label %59

19:                                               ; preds = %3
  call void @llvm.lifetime.start.p0(i64 8, ptr %8) #13
  %20 = load ptr, ptr %5, align 8, !tbaa !46
  %21 = load i32, ptr %6, align 4, !tbaa !29
  %22 = sitofp i32 %21 to double
  %23 = load ptr, ptr %7, align 8, !tbaa !10
  %24 = call noundef double @_ZN6icu_7712_GLOBAL__N_112daysToMillisEPKNS_8TimeZoneEdR10UErrorCode(ptr noundef %20, double noundef %22, ptr noundef nonnull align 4 dereferenceable(4) %23)
  store double %24, ptr %8, align 8, !tbaa !47
  %25 = load ptr, ptr %7, align 8, !tbaa !10
  %26 = load i32, ptr %25, align 4, !tbaa !30
  %27 = call noundef signext i8 @_ZL9U_FAILURE10UErrorCode(i32 noundef %26)
  %28 = icmp ne i8 %27, 0
  br i1 %28, label %29, label %30

29:                                               ; preds = %19
  store i32 0, ptr %4, align 4
  store i32 1, ptr %9, align 4
  br label %58

30:                                               ; preds = %19
  call void @llvm.lifetime.start.p0(i64 4, ptr %10) #13
  call void @llvm.lifetime.start.p0(i64 64, ptr %11) #13
  %31 = load double, ptr %8, align 8, !tbaa !47
  call void @_ZN6icu_7718CalendarAstronomerC1Ed(ptr noundef nonnull align 8 dereferenceable(57) %11, double noundef %31)
  %32 = invoke noundef double @_ZN6icu_7718CalendarAstronomer15getSunLongitudeEv(ptr noundef nonnull align 8 dereferenceable(57) %11)
          to label %33 unwind label %45

33:                                               ; preds = %30
  %34 = fmul double 6.000000e+00, %32
  %35 = load double, ptr @_ZN6icu_7718CalendarAstronomer2PIE, align 8, !tbaa !47
  %36 = fdiv double %34, %35
  %37 = fptosi double %36 to i32
  %38 = add nsw i32 %37, 2
  %39 = srem i32 %38, 12
  call void @_ZN6icu_7718CalendarAstronomerD1Ev(ptr noundef nonnull align 8 dereferenceable(57) %11) #13
  call void @llvm.lifetime.end.p0(i64 64, ptr %11) #13
  store i32 %39, ptr %10, align 4, !tbaa !29
  %40 = load ptr, ptr %7, align 8, !tbaa !10
  %41 = load i32, ptr %40, align 4, !tbaa !30
  %42 = call noundef signext i8 @_ZL9U_FAILURE10UErrorCode(i32 noundef %41)
  %43 = icmp ne i8 %42, 0
  br i1 %43, label %44, label %49

44:                                               ; preds = %33
  store i32 0, ptr %4, align 4
  store i32 1, ptr %9, align 4
  br label %57

45:                                               ; preds = %30
  %46 = landingpad { ptr, i32 }
          cleanup
  %47 = extractvalue { ptr, i32 } %46, 0
  store ptr %47, ptr %12, align 8
  %48 = extractvalue { ptr, i32 } %46, 1
  store i32 %48, ptr %13, align 4
  call void @_ZN6icu_7718CalendarAstronomerD1Ev(ptr noundef nonnull align 8 dereferenceable(57) %11) #13
  call void @llvm.lifetime.end.p0(i64 64, ptr %11) #13
  call void @llvm.lifetime.end.p0(i64 4, ptr %10) #13
  call void @llvm.lifetime.end.p0(i64 8, ptr %8) #13
  br label %61

49:                                               ; preds = %33
  %50 = load i32, ptr %10, align 4, !tbaa !29
  %51 = icmp slt i32 %50, 1
  br i1 %51, label %52, label %55

52:                                               ; preds = %49
  %53 = load i32, ptr %10, align 4, !tbaa !29
  %54 = add nsw i32 %53, 12
  store i32 %54, ptr %10, align 4, !tbaa !29
  br label %55

55:                                               ; preds = %52, %49
  %56 = load i32, ptr %10, align 4, !tbaa !29
  store i32 %56, ptr %4, align 4
  store i32 1, ptr %9, align 4
  br label %57

57:                                               ; preds = %55, %44
  call void @llvm.lifetime.end.p0(i64 4, ptr %10) #13
  br label %58

58:                                               ; preds = %57, %29
  call void @llvm.lifetime.end.p0(i64 8, ptr %8) #13
  br label %59

59:                                               ; preds = %58, %18
  %60 = load i32, ptr %4, align 4
  ret i32 %60

61:                                               ; preds = %45
  %62 = load ptr, ptr %12, align 8
  %63 = load i32, ptr %13, align 4
  %64 = insertvalue { ptr, i32 } poison, ptr %62, 0
  %65 = insertvalue { ptr, i32 } %64, i32 %63, 1
  resume { ptr, i32 } %65
}