; Function Attrs: mustprogress uwtable
define internal fastcc noundef range(i32 0, 13) i32 @_ZN6icu_7712_GLOBAL__N_114majorSolarTermEPKNS_8TimeZoneEiR10UErrorCode(ptr noundef %0, i32 noundef %1, ptr noundef nonnull align 4 dereferenceable(4) %2) unnamed_addr #0 personality ptr @__gxx_personality_v0 {
  %4 = alloca i32, align 4
  %5 = alloca i32, align 4
  %6 = alloca %"class.icu_77::CalendarAstronomer", align 8
  %7 = load i32, ptr %2, align 4, !tbaa !21
  %8 = icmp slt i32 %7, 1
  br i1 %8, label %9, label %38

9:                                                ; preds = %3
  %10 = sitofp i32 %1 to double
  %11 = fmul double %10, 8.640000e+07
  %.not11.i = icmp eq ptr %0, null
  br i1 %.not11.i, label %_ZN6icu_7712_GLOBAL__N_112daysToMillisEPKNS_8TimeZoneEdR10UErrorCode.exit.thread, label %12

12:                                               ; preds = %9
  call void @llvm.lifetime.start.p0(i64 4, ptr nonnull %4) #8
  call void @llvm.lifetime.start.p0(i64 4, ptr nonnull %5) #8
  %13 = load ptr, ptr %0, align 8, !tbaa !3
  %14 = getelementptr inbounds nuw i8, ptr %13, i64 48
  %15 = load ptr, ptr %14, align 8
  call void %15(ptr noundef nonnull align 8 dereferenceable(72) %0, double noundef %11, i8 noundef signext 0, ptr noundef nonnull align 4 dereferenceable(4) %4, ptr noundef nonnull align 4 dereferenceable(4) %5, ptr noundef nonnull align 4 dereferenceable(4) %2)
  %16 = load i32, ptr %2, align 4, !tbaa !21
  %17 = icmp slt i32 %16, 1
  br i1 %17, label %_ZN6icu_7712_GLOBAL__N_112daysToMillisEPKNS_8TimeZoneEdR10UErrorCode.exit.thread19, label %_ZN6icu_7712_GLOBAL__N_112daysToMillisEPKNS_8TimeZoneEdR10UErrorCode.exit

_ZN6icu_7712_GLOBAL__N_112daysToMillisEPKNS_8TimeZoneEdR10UErrorCode.exit.thread19: ; preds = %12
  %18 = load i32, ptr %4, align 4, !tbaa !20
  %19 = load i32, ptr %5, align 4, !tbaa !20
  %20 = add nsw i32 %19, %18
  %21 = sitofp i32 %20 to double
  %22 = fsub double %11, %21
  call void @llvm.lifetime.end.p0(i64 4, ptr nonnull %5) #8
  call void @llvm.lifetime.end.p0(i64 4, ptr nonnull %4) #8
  br label %24

_ZN6icu_7712_GLOBAL__N_112daysToMillisEPKNS_8TimeZoneEdR10UErrorCode.exit.thread: ; preds = %9
  %23 = fadd double %11, -2.880000e+07
  br label %24

_ZN6icu_7712_GLOBAL__N_112daysToMillisEPKNS_8TimeZoneEdR10UErrorCode.exit: ; preds = %12
  call void @llvm.lifetime.end.p0(i64 4, ptr nonnull %5) #8
  call void @llvm.lifetime.end.p0(i64 4, ptr nonnull %4) #8
  br label %38

24:                                               ; preds = %_ZN6icu_7712_GLOBAL__N_112daysToMillisEPKNS_8TimeZoneEdR10UErrorCode.exit.thread19, %_ZN6icu_7712_GLOBAL__N_112daysToMillisEPKNS_8TimeZoneEdR10UErrorCode.exit.thread
  %.0.i18 = phi double [ %23, %_ZN6icu_7712_GLOBAL__N_112daysToMillisEPKNS_8TimeZoneEdR10UErrorCode.exit.thread ], [ %22, %_ZN6icu_7712_GLOBAL__N_112daysToMillisEPKNS_8TimeZoneEdR10UErrorCode.exit.thread19 ]
  call void @llvm.lifetime.start.p0(i64 64, ptr nonnull %6) #8
  call void @_ZN6icu_7718CalendarAstronomerC1Ed(ptr noundef nonnull align 8 dereferenceable(57) %6, double noundef %.0.i18)
  %25 = invoke noundef double @_ZN6icu_7718CalendarAstronomer15getSunLongitudeEv(ptr noundef nonnull align 8 dereferenceable(57) %6)
          to label %26 unwind label %36

26:                                               ; preds = %24
  %27 = fmul double %25, 6.000000e+00
  %28 = load double, ptr @_ZN6icu_7718CalendarAstronomer2PIE, align 8, !tbaa !30
  %29 = fdiv double %27, %28
  %30 = fptosi double %29 to i32
  %31 = add nsw i32 %30, 2
  %32 = srem i32 %31, 12
  call void @_ZN6icu_7718CalendarAstronomerD1Ev(ptr noundef nonnull align 8 dereferenceable(57) %6) #8
  call void @llvm.lifetime.end.p0(i64 64, ptr nonnull %6) #8
  %33 = load i32, ptr %2, align 4, !tbaa !21
  %34 = icmp slt i32 %32, 1
  %35 = add nsw i32 %32, 12
  %spec.select = select i1 %34, i32 %35, i32 %32
  %.inv = icmp sgt i32 %33, 0
  %.2 = select i1 %.inv, i32 0, i32 %spec.select
  br label %38

36:                                               ; preds = %24
  %37 = landingpad { ptr, i32 }
          cleanup
  call void @_ZN6icu_7718CalendarAstronomerD1Ev(ptr noundef nonnull align 8 dereferenceable(57) %6) #8
  call void @llvm.lifetime.end.p0(i64 64, ptr nonnull %6) #8
  resume { ptr, i32 } %37

38:                                               ; preds = %_ZN6icu_7712_GLOBAL__N_112daysToMillisEPKNS_8TimeZoneEdR10UErrorCode.exit, %26, %3
  %.0 = phi i32 [ 0, %3 ], [ %.2, %26 ], [ 0, %_ZN6icu_7712_GLOBAL__N_112daysToMillisEPKNS_8TimeZoneEdR10UErrorCode.exit ]
  ret i32 %.0
}